target datalayout = "e-m:e-p270:32:32-p271:32:32-p272:64:64-i64:64-i128:128-f80:128-n8:16:32:64-S128"
target triple = "x86_64-pc-linux-gnu"

%"class.pxrInternal_v0_24__pxrReserved__::GfMatrix2f" = type { %"class.pxrInternal_v0_24__pxrReserved__::GfMatrixData" }
%"class.pxrInternal_v0_24__pxrReserved__::GfMatrixData" = type { [4 x float] }
%"struct.std::_Vector_base.7" = type { %"struct.std::_Vector_base<std::vector<float>, std::allocator<std::vector<float>>>::_Vector_impl" }
%"struct.std::_Vector_base<std::vector<float>, std::allocator<std::vector<float>>>::_Vector_impl" = type { %"struct.std::_Vector_base<std::vector<float>, std::allocator<std::vector<float>>>::_Vector_impl_data" }
%"struct.std::_Vector_base<std::vector<float>, std::allocator<std::vector<float>>>::_Vector_impl_data" = type { ptr, ptr, ptr }
%"class.std::vector.11" = type { %"struct.std::_Vector_base.12" }
%"struct.std::_Vector_base.12" = type { %"struct.std::_Vector_base<float, std::allocator<float>>::_Vector_impl" }
%"struct.std::_Vector_base<float, std::allocator<float>>::_Vector_impl" = type { %"struct.std::_Vector_base<float, std::allocator<float>>::_Vector_impl_data" }
%"struct.std::_Vector_base<float, std::allocator<float>>::_Vector_impl_data" = type { ptr, ptr, ptr }

@__const.GfMatrix2f.m.6 = private unnamed_addr constant [2 x [2 x float]] [[2 x float] [float 1.000000e+00, float 0.000000e+00], [2 x float] [float 0.000000e+00, float 1.000000e+00]], align 16

; Function Attrs: mustprogress nounwind uwtable
define linkonce_odr noundef ptr @_ZN32pxrInternal_v0_24__pxrReserved__12GfMatrixDataIfLi2ELi2EEixEi(ptr noundef nonnull align 4 dereferenceable(16) %0, i32 noundef %1) #2 comdat align 2 {
  %3 = alloca ptr, align 8
  %4 = alloca i32, align 4
  store ptr %0, ptr %3, align 8
  store i32 %1, ptr %4, align 4
  %5 = load ptr, ptr %3, align 8
  %6 = getelementptr inbounds nuw %"class.pxrInternal_v0_24__pxrReserved__::GfMatrixData", ptr %5, i32 0, i32 0
  %7 = getelementptr inbounds [4 x float], ptr %6, i64 0, i64 0
  %8 = load i32, ptr %4, align 4
  %9 = mul nsw i32 %8, 2
  %10 = sext i32 %9 to i64
  %11 = getelementptr inbounds float, ptr %7, i64 %10
  ret ptr %11
}

; Function Attrs: mustprogress uwtable
define linkonce_odr noundef nonnull align 4 dereferenceable(16) ptr @_ZN32pxrInternal_v0_24__pxrReserved__10GfMatrix2f3SetEPA2_Kf(ptr noundef nonnull align 4 dereferenceable(16) %0, ptr noundef %1) #0 comdat align 2 {
  %3 = alloca ptr, align 8
  %4 = alloca ptr, align 8
  store ptr %0, ptr %3, align 8
  store ptr %1, ptr %4, align 8
  %5 = load ptr, ptr %3, align 8
  %6 = load ptr, ptr %4, align 8
  %7 = getelementptr inbounds [2 x float], ptr %6, i64 0
  %8 = getelementptr inbounds [2 x float], ptr %7, i64 0, i64 0
  %9 = load float, ptr %8, align 4
  %10 = getelementptr inbounds nuw %"class.pxrInternal_v0_24__pxrReserved__::GfMatrix2f", ptr %5, i32 0, i32 0
  %11 = call noundef ptr @_ZN32pxrInternal_v0_24__pxrReserved__12GfMatrixDataIfLi2ELi2EEixEi(ptr noundef nonnull align 4 dereferenceable(16) %10, i32 noundef 0)
  %12 = getelementptr inbounds float, ptr %11, i64 0
  store float %9, ptr %12, align 4
  %13 = load ptr, ptr %4, align 8
  %14 = getelementptr inbounds [2 x float], ptr %13, i64 0
  %15 = getelementptr inbounds [2 x float], ptr %14, i64 0, i64 1
  %16 = load float, ptr %15, align 4
  %17 = getelementptr inbounds nuw %"class.pxrInternal_v0_24__pxrReserved__::GfMatrix2f", ptr %5, i32 0, i32 0
  %18 = call noundef ptr @_ZN32pxrInternal_v0_24__pxrReserved__12GfMatrixDataIfLi2ELi2EEixEi(ptr noundef nonnull align 4 dereferenceable(16) %17, i32 noundef 0)
  %19 = getelementptr inbounds float, ptr %18, i64 1
  store float %16, ptr %19, align 4
  %20 = load ptr, ptr %4, align 8
  %21 = getelementptr inbounds [2 x float], ptr %20, i64 1
  %22 = getelementptr inbounds [2 x float], ptr %21, i64 0, i64 0
  %23 = load float, ptr %22, align 4
  %24 = getelementptr inbounds nuw %"class.pxrInternal_v0_24__pxrReserved__::GfMatrix2f", ptr %5, i32 0, i32 0
  %25 = call noundef ptr @_ZN32pxrInternal_v0_24__pxrReserved__12GfMatrixDataIfLi2ELi2EEixEi(ptr noundef nonnull align 4 dereferenceable(16) %24, i32 noundef 1)
  %26 = getelementptr inbounds float, ptr %25, i64 0
  store float %23, ptr %26, align 4
  %27 = load ptr, ptr %4, align 8
  %28 = getelementptr inbounds [2 x float], ptr %27, i64 1
  %29 = getelementptr inbounds [2 x float], ptr %28, i64 0, i64 1
  %30 = load float, ptr %29, align 4
  %31 = getelementptr inbounds nuw %"class.pxrInternal_v0_24__pxrReserved__::GfMatrix2f", ptr %5, i32 0, i32 0
  %32 = call noundef ptr @_ZN32pxrInternal_v0_24__pxrReserved__12GfMatrixDataIfLi2ELi2EEixEi(ptr noundef nonnull align 4 dereferenceable(16) %31, i32 noundef 1)
  %33 = getelementptr inbounds float, ptr %32, i64 1
  store float %30, ptr %33, align 4
  ret ptr %5
}

; Function Attrs: mustprogress nounwind uwtable
define linkonce_odr noundef nonnull align 4 dereferenceable(4) ptr @_ZNKSt6vectorIfSaIfEEixEm(ptr noundef nonnull align 8 dereferenceable(24) %0, i64 noundef %1) #2 comdat align 2 {
  %3 = alloca ptr, align 8
  %4 = alloca i64, align 8
  store ptr %0, ptr %3, align 8
  store i64 %1, ptr %4, align 8
  %5 = load ptr, ptr %3, align 8
  %6 = getelementptr inbounds nuw %"struct.std::_Vector_base.12", ptr %5, i32 0, i32 0
  %7 = getelementptr inbounds nuw %"struct.std::_Vector_base<float, std::allocator<float>>::_Vector_impl_data", ptr %6, i32 0, i32 0
  %8 = load ptr, ptr %7, align 8
  %9 = load i64, ptr %4, align 8
  %10 = getelementptr inbounds float, ptr %8, i64 %9
  ret ptr %10
}

; Function Attrs: mustprogress nounwind uwtable
define linkonce_odr noundef i64 @_ZNKSt6vectorIfSaIfEE4sizeEv(ptr noundef nonnull align 8 dereferenceable(24) %0) #2 comdat align 2 {
  %2 = alloca ptr, align 8
  store ptr %0, ptr %2, align 8
  %3 = load ptr, ptr %2, align 8
  %4 = getelementptr inbounds nuw %"struct.std::_Vector_base.12", ptr %3, i32 0, i32 0
  %5 = getelementptr inbounds nuw %"struct.std::_Vector_base<float, std::allocator<float>>::_Vector_impl_data", ptr %4, i32 0, i32 1
  %6 = load ptr, ptr %5, align 8
  %7 = getelementptr inbounds nuw %"struct.std::_Vector_base.12", ptr %3, i32 0, i32 0
  %8 = getelementptr inbounds nuw %"struct.std::_Vector_base<float, std::allocator<float>>::_Vector_impl_data", ptr %7, i32 0, i32 0
  %9 = load ptr, ptr %8, align 8
  %10 = ptrtoint ptr %6 to i64
  %11 = ptrtoint ptr %9 to i64
  %12 = sub i64 %10, %11
  %13 = sdiv exact i64 %12, 4
  ret i64 %13
}

; Function Attrs: mustprogress nounwind uwtable
define linkonce_odr noundef nonnull align 8 dereferenceable(24) ptr @_ZNKSt6vectorIS_IfSaIfEESaIS1_EEixEm(ptr noundef nonnull align 8 dereferenceable(24) %0, i64 noundef %1) #2 comdat align 2 {
  %3 = alloca ptr, align 8
  %4 = alloca i64, align 8
  store ptr %0, ptr %3, align 8
  store i64 %1, ptr %4, align 8
  %5 = load ptr, ptr %3, align 8
  %6 = getelementptr inbounds nuw %"struct.std::_Vector_base.7", ptr %5, i32 0, i32 0
  %7 = getelementptr inbounds nuw %"struct.std::_Vector_base<std::vector<float>, std::allocator<std::vector<float>>>::_Vector_impl_data", ptr %6, i32 0, i32 0
  %8 = load ptr, ptr %7, align 8
  %9 = load i64, ptr %4, align 8
  %10 = getelementptr inbounds %"class.std::vector.11", ptr %8, i64 %9
  ret ptr %10
}

; Function Attrs: mustprogress nounwind uwtable
define linkonce_odr noundef i64 @_ZNKSt6vectorIS_IfSaIfEESaIS1_EE4sizeEv(ptr noundef nonnull align 8 dereferenceable(24) %0) #2 comdat align 2 {
  %2 = alloca ptr, align 8
  store ptr %0, ptr %2, align 8
  %3 = load ptr, ptr %2, align 8
  %4 = getelementptr inbounds nuw %"struct.std::_Vector_base.7", ptr %3, i32 0, i32 0
  %5 = getelementptr inbounds nuw %"struct.std::_Vector_base<std::vector<float>, std::allocator<std::vector<float>>>::_Vector_impl_data", ptr %4, i32 0, i32 1
  %6 = load ptr, ptr %5, align 8
  %7 = getelementptr inbounds nuw %"struct.std::_Vector_base.7", ptr %3, i32 0, i32 0
  %8 = getelementptr inbounds nuw %"struct.std::_Vector_base<std::vector<float>, std::allocator<std::vector<float>>>::_Vector_impl_data", ptr %7, i32 0, i32 0
  %9 = load ptr, ptr %8, align 8
  %10 = ptrtoint ptr %6 to i64
  %11 = ptrtoint ptr %9 to i64
  %12 = sub i64 %10, %11
  %13 = sdiv exact i64 %12, 24
  ret i64 %13
}

; Function Attrs: mustprogress uwtable
define void @_ZN32pxrInternal_v0_24__pxrReserved__10GfMatrix2fC2ERKSt6vectorIS1_IfSaIfEESaIS3_EE(ptr noundef nonnull align 4 dereferenceable(16) %0, ptr noundef nonnull align 8 dereferenceable(24) %1) unnamed_addr #0 align 2 {
  %3 = alloca ptr, align 8
  %4 = alloca ptr, align 8
  %5 = alloca [2 x [2 x float]], align 16
  %6 = alloca i64, align 8
  %7 = alloca i64, align 8
  store ptr %0, ptr %3, align 8
  store ptr %1, ptr %4, align 8
  %8 = load ptr, ptr %3, align 8
  call void @llvm.memcpy.p0.p0.i64(ptr align 16 %5, ptr align 16 @__const.GfMatrix2f.m.6, i64 16, i1 false)
  store i64 0, ptr %6, align 8
  br label %9

9:                                                ; preds = %47, %2
  %10 = load i64, ptr %6, align 8
  %11 = icmp ult i64 %10, 2
  br i1 %11, label %12, label %17

12:                                               ; preds = %9
  %13 = load i64, ptr %6, align 8
  %14 = load ptr, ptr %4, align 8
  %15 = call noundef i64 @_ZNKSt6vectorIS_IfSaIfEESaIS1_EE4sizeEv(ptr noundef nonnull align 8 dereferenceable(24) %14) #6
  %16 = icmp ult i64 %13, %15
  br label %17

17:                                               ; preds = %12, %9
  %18 = phi i1 [ false, %9 ], [ %16, %12 ]
  br i1 %18, label %19, label %50

19:                                               ; preds = %17
  store i64 0, ptr %7, align 8
  br label %20

20:                                               ; preds = %43, %19
  %21 = load i64, ptr %7, align 8
  %22 = icmp ult i64 %21, 2
  br i1 %22, label %23, label %30

23:                                               ; preds = %20
  %24 = load i64, ptr %7, align 8
  %25 = load ptr, ptr %4, align 8
  %26 = load i64, ptr %6, align 8
  %27 = call noundef nonnull align 8 dereferenceable(24) ptr @_ZNKSt6vectorIS_IfSaIfEESaIS1_EEixEm(ptr noundef nonnull align 8 dereferenceable(24) %25, i64 noundef %26) #6
  %28 = call noundef i64 @_ZNKSt6vectorIfSaIfEE4sizeEv(ptr noundef nonnull align 8 dereferenceable(24) %27) #6
  %29 = icmp ult i64 %24, %28
  br label %30

30:                                               ; preds = %23, %20
  %31 = phi i1 [ false, %20 ], [ %29, %23 ]
  br i1 %31, label %32, label %46

32:                                               ; preds = %30
  %33 = load ptr, ptr %4, align 8
  %34 = load i64, ptr %6, align 8
  %35 = call noundef nonnull align 8 dereferenceable(24) ptr @_ZNKSt6vectorIS_IfSaIfEESaIS1_EEixEm(ptr noundef nonnull align 8 dereferenceable(24) %33, i64 noundef %34) #6
  %36 = load i64, ptr %7, align 8
  %37 = call noundef nonnull align 4 dereferenceable(4) ptr @_ZNKSt6vectorIfSaIfEEixEm(ptr noundef nonnull align 8 dereferenceable(24) %35, i64 noundef %36) #6
  %38 = load float, ptr %37, align 4
  %39 = load i64, ptr %6, align 8
  %40 = getelementptr inbounds [2 x [2 x float]], ptr %5, i64 0, i64 %39
  %41 = load i64, ptr %7, align 8
  %42 = getelementptr inbounds [2 x float], ptr %40, i64 0, i64 %41
  store float %38, ptr %42, align 4
  br label %43

43:                                               ; preds = %32
  %44 = load i64, ptr %7, align 8
  %45 = add i64 %44, 1
  store i64 %45, ptr %7, align 8
  br label %20, !llvm.loop !7

46:                                               ; preds = %30
  br label %47

47:                                               ; preds = %46
  %48 = load i64, ptr %6, align 8
  %49 = add i64 %48, 1
  store i64 %49, ptr %6, align 8
  br label %9, !llvm.loop !8

50:                                               ; preds = %17
  %51 = getelementptr inbounds [2 x [2 x float]], ptr %5, i64 0, i64 0
  %52 = call noundef nonnull align 4 dereferenceable(16) ptr @_ZN32pxrInternal_v0_24__pxrReserved__10GfMatrix2f3SetEPA2_Kf(ptr noundef nonnull align 4 dereferenceable(16) %8, ptr noundef %51)
  ret void
}